; Function Attrs: nounwind uwtable
define range(i32 0, 2) i32 @stbi_info_from_callbacks(ptr noundef readonly captures(none) %0, ptr noundef %1, ptr noundef captures(address_is_null) %2, ptr noundef captures(address_is_null) %3, ptr noundef captures(address_is_null) %4) local_unnamed_addr #2 {
  %6 = alloca %struct.stbi__context, align 8
  call void @llvm.lifetime.start.p0(i64 224, ptr nonnull %6) #37
  %7 = getelementptr inbounds nuw i8, ptr %6, i64 16
  call void @llvm.memcpy.p0.p0.i64(ptr noundef nonnull align 8 dereferenceable(24) %7, ptr noundef nonnull readonly align 8 dereferenceable(24) %0, i64 24, i1 false), !tbaa.struct !17
  %8 = getelementptr inbounds nuw i8, ptr %6, i64 40
  store ptr %1, ptr %8, align 8, !tbaa !19
  %9 = getelementptr inbounds nuw i8, ptr %6, i64 52
  store i32 128, ptr %9, align 4, !tbaa !20
  %10 = getelementptr inbounds nuw i8, ptr %6, i64 48
  store i32 1, ptr %10, align 8, !tbaa !11
  %11 = getelementptr inbounds nuw i8, ptr %6, i64 184
  store i32 0, ptr %11, align 8, !tbaa !12
  %12 = getelementptr inbounds nuw i8, ptr %6, i64 56
  %13 = getelementptr inbounds nuw i8, ptr %6, i64 208
  store ptr %12, ptr %13, align 8, !tbaa !13
  %14 = getelementptr inbounds nuw i8, ptr %6, i64 192
  store ptr %12, ptr %14, align 8, !tbaa !14
  %15 = load ptr, ptr %7, align 8, !tbaa !3
  %16 = call i32 %15(ptr noundef %1, ptr noundef nonnull %12, i32 noundef 128) #37
  %17 = load ptr, ptr %14, align 8, !tbaa !14
  %18 = load ptr, ptr %13, align 8, !tbaa !13
  %19 = ptrtoint ptr %17 to i64
  %20 = ptrtoint ptr %18 to i64
  %21 = sub i64 %19, %20
  %22 = trunc i64 %21 to i32
  %23 = load i32, ptr %11, align 8, !tbaa !12
  %24 = add nsw i32 %23, %22
  store i32 %24, ptr %11, align 8, !tbaa !12
  %25 = icmp eq i32 %16, 0
  br i1 %25, label %26, label %28

26:                                               ; preds = %5
  store i32 0, ptr %10, align 8, !tbaa !11
  %27 = getelementptr inbounds nuw i8, ptr %6, i64 57
  store i8 0, ptr %12, align 8, !tbaa !21
  br label %stbi__start_callbacks.exit

28:                                               ; preds = %5
  %29 = sext i32 %16 to i64
  %30 = getelementptr inbounds i8, ptr %12, i64 %29
  br label %stbi__start_callbacks.exit

stbi__start_callbacks.exit:                       ; preds = %26, %28
  %.sink.i.i = phi ptr [ %27, %26 ], [ %30, %28 ]
  store ptr %12, ptr %14, align 8, !tbaa !14
  %31 = getelementptr inbounds nuw i8, ptr %6, i64 200
  store ptr %.sink.i.i, ptr %31, align 8, !tbaa !16
  %32 = getelementptr inbounds nuw i8, ptr %6, i64 216
  store ptr %.sink.i.i, ptr %32, align 8, !tbaa !15
  %33 = call i32 @stbi__info_main(ptr noundef nonnull %6, ptr noundef %2, ptr noundef %3, ptr noundef %4)
  call void @llvm.lifetime.end.p0(i64 224, ptr nonnull %6) #37
  ret i32 %33
}